target datalayout = "e-m:e-p270:32:32-p271:32:32-p272:64:64-i64:64-i128:128-f80:128-n8:16:32:64-S128"
target triple = "x86_64-pc-linux-gnu"

%struct.RoseEngine = type { i8, i8, i8, i8, i8, i8, i8, i8, i8, i32, i32, i32, i32, i32, i32, i32, i32, i32, i32, i32, i32, i32, i32, i32, i32, i32, i32, i32, i32, i32, i32, i32, i32, i32, i32, i32, i32, i32, i32, i32, i32, i32, i32, i32, i32, i32, i32, i32, i32, i32, i32, i32, i32, i32, i32, i32, i32, i32, i32, i32, i32, i32, i32, i32, i32, i32, i64, i64, i32, i32, i32, i32, i32, i32, i32, %struct.RoseStateOffsets, %struct.RoseBoundaryReports, i32, i32, i32, i32, i32, i32, i32, i32, i32, i32, i32, i32, %struct.scatter_full_plan }
%struct.RoseStateOffsets = type { i32, i32, i32, i32, i32, i32, i32, i32, i32, i32, i32, i32, i32, i32, i32, i32, i32, i32, i32, i32, i32, i32, i32 }
%struct.RoseBoundaryReports = type { i32, i32, i32 }
%struct.scatter_full_plan = type { i32, i32, i32, i32, i32, i32, i32, i32 }
%struct.hs_scratch = type { i32, i8, i32, i32, i32, i32, i32, %struct.RoseContext, ptr, ptr, ptr, ptr, ptr, ptr, ptr, i64, %struct.catchup_pq, %struct.core_info, %struct.match_deduper, i32, i32, ptr, ptr, ptr, ptr, ptr, i64, i32, i32, i32, i32, i32, ptr, ptr, i8 }
%struct.RoseContext = type { i8, i64, i64, i64, i64, i64, i64, i64, i64, i64, i32, i32, ptr, i64, ptr, i64 }
%struct.catchup_pq = type { ptr, i32 }
%struct.core_info = type { ptr, ptr, ptr, ptr, ptr, ptr, ptr, ptr, i64, ptr, i64, i64, i8 }
%struct.match_deduper = type { [2 x ptr], [2 x ptr], [2 x ptr], i32, i32, i64, i8 }
%struct.hs_stream = type { ptr, i64 }

; Function Attrs: alwaysinline nounwind uwtable
define internal void @unmarkScratchInUse(ptr noundef %0) #3 {
  %2 = alloca ptr, align 8
  store ptr %0, ptr %2, align 8
  br label %3

3:                                                ; preds = %1
  br label %4

4:                                                ; preds = %3
  %5 = load ptr, ptr %2, align 8
  %6 = getelementptr inbounds nuw %struct.hs_scratch, ptr %5, i32 0, i32 1
  store i8 0, ptr %6, align 4
  ret void
}

; Function Attrs: alwaysinline nounwind uwtable
define internal signext i8 @markScratchInUse(ptr noundef %0) #3 {
  %2 = alloca i8, align 1
  %3 = alloca ptr, align 8
  store ptr %0, ptr %3, align 8
  br label %4

4:                                                ; preds = %1
  br label %5

5:                                                ; preds = %4
  %6 = load ptr, ptr %3, align 8
  %7 = getelementptr inbounds nuw %struct.hs_scratch, ptr %6, i32 0, i32 1
  %8 = load i8, ptr %7, align 4
  %9 = icmp ne i8 %8, 0
  br i1 %9, label %10, label %13

10:                                               ; preds = %5
  br label %11

11:                                               ; preds = %10
  br label %12

12:                                               ; preds = %11
  store i8 1, ptr %2, align 1
  br label %16

13:                                               ; preds = %5
  %14 = load ptr, ptr %3, align 8
  %15 = getelementptr inbounds nuw %struct.hs_scratch, ptr %14, i32 0, i32 1
  store i8 1, ptr %15, align 4
  store i8 0, ptr %2, align 1
  br label %16

16:                                               ; preds = %13, %12
  %17 = load i8, ptr %2, align 1
  ret i8 %17
}

; Function Attrs: alwaysinline nounwind uwtable
define internal signext i8 @validScratch(ptr noundef %0, ptr noundef %1) #3 {
  %3 = alloca i8, align 1
  %4 = alloca ptr, align 8
  %5 = alloca ptr, align 8
  store ptr %0, ptr %4, align 8
  store ptr %1, ptr %5, align 8
  %6 = load ptr, ptr %5, align 8
  %7 = ptrtoint ptr %6 to i64
  %8 = and i64 %7, 63
  %9 = icmp eq i64 %8, 0
  br i1 %9, label %13, label %10

10:                                               ; preds = %2
  br label %11

11:                                               ; preds = %10
  br label %12

12:                                               ; preds = %11
  store i8 0, ptr %3, align 1
  br label %50

13:                                               ; preds = %2
  %14 = load ptr, ptr %5, align 8
  %15 = getelementptr inbounds nuw %struct.hs_scratch, ptr %14, i32 0, i32 0
  %16 = load i32, ptr %15, align 64
  %17 = icmp ne i32 %16, 1414480473
  br i1 %17, label %18, label %21

18:                                               ; preds = %13
  br label %19

19:                                               ; preds = %18
  br label %20

20:                                               ; preds = %19
  store i8 0, ptr %3, align 1
  br label %50

21:                                               ; preds = %13
  %22 = load ptr, ptr %4, align 8
  %23 = getelementptr inbounds nuw %struct.RoseEngine, ptr %22, i32 0, i32 9
  %24 = load i32, ptr %23, align 4
  %25 = icmp eq i32 %24, 1
  br i1 %25, label %26, label %38

26:                                               ; preds = %21
  %27 = load ptr, ptr %4, align 8
  %28 = getelementptr inbounds nuw %struct.RoseEngine, ptr %27, i32 0, i32 75
  %29 = getelementptr inbounds nuw %struct.RoseStateOffsets, ptr %28, i32 0, i32 22
  %30 = load i32, ptr %29, align 4
  %31 = load ptr, ptr %5, align 8
  %32 = getelementptr inbounds nuw %struct.hs_scratch, ptr %31, i32 0, i32 4
  %33 = load i32, ptr %32, align 16
  %34 = icmp ugt i32 %30, %33
  br i1 %34, label %35, label %38

35:                                               ; preds = %26
  br label %36

36:                                               ; preds = %35
  br label %37

37:                                               ; preds = %36
  store i8 0, ptr %3, align 1
  br label %50

38:                                               ; preds = %26, %21
  %39 = load ptr, ptr %4, align 8
  %40 = getelementptr inbounds nuw %struct.RoseEngine, ptr %39, i32 0, i32 45
  %41 = load i32, ptr %40, align 4
  %42 = load ptr, ptr %5, align 8
  %43 = getelementptr inbounds nuw %struct.hs_scratch, ptr %42, i32 0, i32 2
  %44 = load i32, ptr %43, align 8
  %45 = icmp ugt i32 %41, %44
  br i1 %45, label %46, label %49

46:                                               ; preds = %38
  br label %47

47:                                               ; preds = %46
  br label %48

48:                                               ; preds = %47
  store i8 0, ptr %3, align 1
  br label %50

49:                                               ; preds = %38
  store i8 1, ptr %3, align 1
  br label %50

50:                                               ; preds = %49, %48, %37, %20, %12
  %51 = load i8, ptr %3, align 1
  ret i8 %51
}

; Function Attrs: nounwind uwtable
define dso_local i32 @hs_scan_stream(ptr noundef %0, ptr noundef %1, i32 noundef %2, i32 noundef %3, ptr noundef %4, ptr noundef %5, ptr noundef %6) #0 {
  %8 = alloca i32, align 4
  %9 = alloca ptr, align 8
  %10 = alloca ptr, align 8
  %11 = alloca i32, align 4
  %12 = alloca i32, align 4
  %13 = alloca ptr, align 8
  %14 = alloca ptr, align 8
  %15 = alloca ptr, align 8
  %16 = alloca i32, align 4
  store ptr %0, ptr %9, align 8
  store ptr %1, ptr %10, align 8
  store i32 %2, ptr %11, align 4
  store i32 %3, ptr %12, align 4
  store ptr %4, ptr %13, align 8
  store ptr %5, ptr %14, align 8
  store ptr %6, ptr %15, align 8
  %17 = load ptr, ptr %9, align 8
  %18 = icmp ne ptr %17, null
  br i1 %18, label %19, label %33

19:                                               ; preds = %7
  %20 = load ptr, ptr %13, align 8
  %21 = icmp ne ptr %20, null
  br i1 %21, label %22, label %33

22:                                               ; preds = %19
  %23 = load ptr, ptr %10, align 8
  %24 = icmp ne ptr %23, null
  br i1 %24, label %25, label %33

25:                                               ; preds = %22
  %26 = load ptr, ptr %9, align 8
  %27 = getelementptr inbounds nuw %struct.hs_stream, ptr %26, i32 0, i32 0
  %28 = load ptr, ptr %27, align 8
  %29 = load ptr, ptr %13, align 8
  %30 = call signext i8 @validScratch(ptr noundef %28, ptr noundef %29)
  %31 = icmp ne i8 %30, 0
  %32 = xor i1 %31, true
  br label %33

33:                                               ; preds = %25, %22, %19, %7
  %34 = phi i1 [ true, %22 ], [ true, %19 ], [ true, %7 ], [ %32, %25 ]
  %35 = xor i1 %34, true
  %36 = xor i1 %35, true
  %37 = zext i1 %36 to i32
  %38 = sext i32 %37 to i64
  %39 = call i64 @llvm.expect.i64(i64 %38, i64 0)
  %40 = icmp ne i64 %39, 0
  br i1 %40, label %41, label %42

41:                                               ; preds = %33
  store i32 -1, ptr %8, align 4
  br label %64

42:                                               ; preds = %33
  %43 = load ptr, ptr %13, align 8
  %44 = call signext i8 @markScratchInUse(ptr noundef %43)
  %45 = icmp ne i8 %44, 0
  %46 = xor i1 %45, true
  %47 = xor i1 %46, true
  %48 = zext i1 %47 to i32
  %49 = sext i32 %48 to i64
  %50 = call i64 @llvm.expect.i64(i64 %49, i64 0)
  %51 = icmp ne i64 %50, 0
  br i1 %51, label %52, label %53

52:                                               ; preds = %42
  store i32 -10, ptr %8, align 4
  br label %64

53:                                               ; preds = %42
  call void @llvm.lifetime.start.p0(i64 4, ptr %16) #13
  %54 = load ptr, ptr %9, align 8
  %55 = load ptr, ptr %10, align 8
  %56 = load i32, ptr %11, align 4
  %57 = load i32, ptr %12, align 4
  %58 = load ptr, ptr %13, align 8
  %59 = load ptr, ptr %14, align 8
  %60 = load ptr, ptr %15, align 8
  %61 = call i32 @hs_scan_stream_internal(ptr noundef %54, ptr noundef %55, i32 noundef %56, i32 noundef %57, ptr noundef %58, ptr noundef %59, ptr noundef %60)
  store i32 %61, ptr %16, align 4
  %62 = load ptr, ptr %13, align 8
  call void @unmarkScratchInUse(ptr noundef %62)
  %63 = load i32, ptr %16, align 4
  store i32 %63, ptr %8, align 4
  call void @llvm.lifetime.end.p0(i64 4, ptr %16) #13
  br label %64

64:                                               ; preds = %53, %52, %41
  %65 = load i32, ptr %8, align 4
  ret i32 %65
}