; Function Attrs: nounwind uwtable
define dso_local range(i32 -13, 1) i32 @hs_scan_stream(ptr noundef %0, ptr noundef %1, i32 noundef %2, i32 noundef %3, ptr noundef %4, ptr noundef %5, ptr noundef %6) local_unnamed_addr #0 {
  %8 = icmp ne ptr %0, null
  %9 = icmp ne ptr %4, null
  %or.cond = and i1 %8, %9
  %10 = icmp ne ptr %1, null
  %or.cond3 = and i1 %10, %or.cond
  br i1 %or.cond3, label %11, label %.critedge, !prof !18

11:                                               ; preds = %7
  %12 = load ptr, ptr %0, align 8
  %13 = ptrtoint ptr %4 to i64
  %14 = and i64 %13, 63
  %15 = icmp eq i64 %14, 0
  br i1 %15, label %16, label %.critedge

16:                                               ; preds = %11
  %17 = load i32, ptr %4, align 64
  %.not.i = icmp eq i32 %17, 1414480473
  br i1 %.not.i, label %18, label %.critedge

18:                                               ; preds = %16
  %19 = getelementptr inbounds nuw i8, ptr %12, i64 12
  %20 = load i32, ptr %19, align 4
  %21 = icmp eq i32 %20, 1
  br i1 %21, label %22, label %28

22:                                               ; preds = %18
  %23 = getelementptr inbounds nuw i8, ptr %12, i64 372
  %24 = load i32, ptr %23, align 4
  %25 = getelementptr inbounds nuw i8, ptr %4, i64 16
  %26 = load i32, ptr %25, align 16
  %27 = icmp ugt i32 %24, %26
  br i1 %27, label %.critedge, label %28

28:                                               ; preds = %22, %18
  %29 = getelementptr inbounds nuw i8, ptr %12, i64 156
  %30 = load i32, ptr %29, align 4
  %31 = getelementptr inbounds nuw i8, ptr %4, i64 8
  %32 = load i32, ptr %31, align 8
  %33 = icmp ugt i32 %30, %32
  br i1 %33, label %.critedge, label %validScratch.exit

validScratch.exit:                                ; preds = %28
  %34 = getelementptr inbounds nuw i8, ptr %4, i64 4
  %35 = load i8, ptr %34, align 4
  %.not.i21 = icmp eq i8 %35, 0
  br i1 %.not.i21, label %36, label %.critedge

36:                                               ; preds = %validScratch.exit
  store i8 1, ptr %34, align 4
  %37 = tail call fastcc i32 @hs_scan_stream_internal(ptr noundef nonnull %0, ptr noundef nonnull %1, i32 noundef %2, ptr noundef nonnull %4, ptr noundef %5, ptr noundef %6)
  store i8 0, ptr %34, align 4
  br label %.critedge

.critedge:                                        ; preds = %28, %22, %16, %11, %validScratch.exit, %7, %36
  %.0 = phi i32 [ %37, %36 ], [ -1, %7 ], [ -10, %validScratch.exit ], [ -1, %11 ], [ -1, %16 ], [ -1, %22 ], [ -1, %28 ]
  ret i32 %.0
}